target datalayout = "e-m:e-p270:32:32-p271:32:32-p272:64:64-i64:64-i128:128-f80:128-n8:16:32:64-S128"
target triple = "x86_64-pc-linux-gnu"

%struct.ArrayType = type { i32, i32, i32, i32 }

@.str.2 = private unnamed_addr constant [13 x i8] c"arrayfuncs.c\00", align 1
@.str.8 = private unnamed_addr constant [39 x i8] c"null array element where not supported\00", align 1
@__func__.CopyArrayEls = private unnamed_addr constant [13 x i8] c"CopyArrayEls\00", align 1

; Function Attrs: inlinehint nounwind uwtable
define internal ptr @DatumGetPointer(i64 noundef %0) #2 {
  %2 = alloca i64, align 8
  store i64 %0, ptr %2, align 8
  %3 = load i64, ptr %2, align 8
  %4 = inttoptr i64 %3 to ptr
  ret ptr %4
}

; Function Attrs: nounwind uwtable
define dso_local void @CopyArrayEls(ptr noundef %0, ptr noundef %1, ptr noundef %2, i32 noundef %3, i32 noundef %4, i1 noundef zeroext %5, i8 noundef signext %6, i1 noundef zeroext %7) #0 {
  %9 = alloca ptr, align 8
  %10 = alloca ptr, align 8
  %11 = alloca ptr, align 8
  %12 = alloca i32, align 4
  %13 = alloca i32, align 4
  %14 = alloca i8, align 1
  %15 = alloca i8, align 1
  %16 = alloca i8, align 1
  %17 = alloca ptr, align 8
  %18 = alloca ptr, align 8
  %19 = alloca i32, align 4
  %20 = alloca i32, align 4
  %21 = alloca i32, align 4
  store ptr %0, ptr %9, align 8
  store ptr %1, ptr %10, align 8
  store ptr %2, ptr %11, align 8
  store i32 %3, ptr %12, align 4
  store i32 %4, ptr %13, align 4
  %22 = zext i1 %5 to i8
  store i8 %22, ptr %14, align 1
  store i8 %6, ptr %15, align 1
  %23 = zext i1 %7 to i8
  store i8 %23, ptr %16, align 1
  call void @llvm.lifetime.start.p0(i64 8, ptr %17) #11
  %24 = load ptr, ptr %9, align 8
  %25 = load ptr, ptr %9, align 8
  %26 = getelementptr inbounds nuw %struct.ArrayType, ptr %25, i32 0, i32 2
  %27 = load i32, ptr %26, align 4
  %28 = icmp ne i32 %27, 0
  br i1 %28, label %29, label %34

29:                                               ; preds = %8
  %30 = load ptr, ptr %9, align 8
  %31 = getelementptr inbounds nuw %struct.ArrayType, ptr %30, i32 0, i32 2
  %32 = load i32, ptr %31, align 4
  %33 = sext i32 %32 to i64
  br label %43

34:                                               ; preds = %8
  %35 = load ptr, ptr %9, align 8
  %36 = getelementptr inbounds nuw %struct.ArrayType, ptr %35, i32 0, i32 1
  %37 = load i32, ptr %36, align 4
  %38 = sext i32 %37 to i64
  %39 = mul i64 8, %38
  %40 = add i64 16, %39
  %41 = add i64 %40, 7
  %42 = and i64 %41, -8
  br label %43

43:                                               ; preds = %34, %29
  %44 = phi i64 [ %33, %29 ], [ %42, %34 ]
  %45 = getelementptr inbounds nuw i8, ptr %24, i64 %44
  store ptr %45, ptr %17, align 8
  call void @llvm.lifetime.start.p0(i64 8, ptr %18) #11
  %46 = load ptr, ptr %9, align 8
  %47 = getelementptr inbounds nuw %struct.ArrayType, ptr %46, i32 0, i32 2
  %48 = load i32, ptr %47, align 4
  %49 = icmp ne i32 %48, 0
  br i1 %49, label %50, label %59

50:                                               ; preds = %43
  %51 = load ptr, ptr %9, align 8
  %52 = getelementptr inbounds nuw i8, ptr %51, i64 16
  %53 = load ptr, ptr %9, align 8
  %54 = getelementptr inbounds nuw %struct.ArrayType, ptr %53, i32 0, i32 1
  %55 = load i32, ptr %54, align 4
  %56 = sext i32 %55 to i64
  %57 = mul i64 8, %56
  %58 = getelementptr inbounds nuw i8, ptr %52, i64 %57
  br label %60

59:                                               ; preds = %43
  br label %60

60:                                               ; preds = %59, %50
  %61 = phi ptr [ %58, %50 ], [ null, %59 ]
  store ptr %61, ptr %18, align 8
  call void @llvm.lifetime.start.p0(i64 4, ptr %19) #11
  store i32 0, ptr %19, align 4
  call void @llvm.lifetime.start.p0(i64 4, ptr %20) #11
  store i32 1, ptr %20, align 4
  call void @llvm.lifetime.start.p0(i64 4, ptr %21) #11
  %62 = load i8, ptr %14, align 1, !range !4, !noundef !5
  %63 = trunc i8 %62 to i1
  br i1 %63, label %64, label %65

64:                                               ; preds = %60
  store i8 0, ptr %16, align 1
  br label %65

65:                                               ; preds = %64, %60
  store i32 0, ptr %21, align 4
  br label %66

66:                                               ; preds = %138, %65
  %67 = load i32, ptr %21, align 4
  %68 = load i32, ptr %12, align 4
  %69 = icmp slt i32 %67, %68
  br i1 %69, label %70, label %141

70:                                               ; preds = %66
  %71 = load ptr, ptr %11, align 8
  %72 = icmp ne ptr %71, null
  br i1 %72, label %73, label %95

73:                                               ; preds = %70
  %74 = load ptr, ptr %11, align 8
  %75 = load i32, ptr %21, align 4
  %76 = sext i32 %75 to i64
  %77 = getelementptr inbounds i8, ptr %74, i64 %76
  %78 = load i8, ptr %77, align 1, !range !4, !noundef !5
  %79 = trunc i8 %78 to i1
  br i1 %79, label %80, label %95

80:                                               ; preds = %73
  %81 = load ptr, ptr %18, align 8
  %82 = icmp ne ptr %81, null
  br i1 %82, label %94, label %83

83:                                               ; preds = %80
  br label %84

84:                                               ; preds = %83
  br i1 true, label %85, label %87

85:                                               ; preds = %84
  %86 = call zeroext i1 @errstart_cold(i32 noundef 21, ptr noundef null) #13
  br i1 %86, label %89, label %91

87:                                               ; preds = %84
  %88 = call zeroext i1 @errstart(i32 noundef 21, ptr noundef null)
  br i1 %88, label %89, label %91

89:                                               ; preds = %87, %85
  %90 = call i32 (ptr, ...) @errmsg_internal(ptr noundef @.str.8)
  call void @errfinish(ptr noundef @.str.2, i32 noundef 984, ptr noundef @__func__.CopyArrayEls)
  br label %91

91:                                               ; preds = %89, %87, %85
  unreachable

92:                                               ; No predecessors!
  br label %93

93:                                               ; preds = %92
  br label %94

94:                                               ; preds = %93, %80
  br label %123

95:                                               ; preds = %73, %70
  %96 = load i32, ptr %20, align 4
  %97 = load i32, ptr %19, align 4
  %98 = or i32 %97, %96
  store i32 %98, ptr %19, align 4
  %99 = load ptr, ptr %10, align 8
  %100 = load i32, ptr %21, align 4
  %101 = sext i32 %100 to i64
  %102 = getelementptr inbounds i64, ptr %99, i64 %101
  %103 = load i64, ptr %102, align 8
  %104 = load i32, ptr %13, align 4
  %105 = load i8, ptr %14, align 1, !range !4, !noundef !5
  %106 = trunc i8 %105 to i1
  %107 = load i8, ptr %15, align 1
  %108 = load ptr, ptr %17, align 8
  %109 = call i32 @ArrayCastAndSet(i64 noundef %103, i32 noundef %104, i1 noundef zeroext %106, i8 noundef signext %107, ptr noundef %108)
  %110 = load ptr, ptr %17, align 8
  %111 = sext i32 %109 to i64
  %112 = getelementptr inbounds i8, ptr %110, i64 %111
  store ptr %112, ptr %17, align 8
  %113 = load i8, ptr %16, align 1, !range !4, !noundef !5
  %114 = trunc i8 %113 to i1
  br i1 %114, label %115, label %122

115:                                              ; preds = %95
  %116 = load ptr, ptr %10, align 8
  %117 = load i32, ptr %21, align 4
  %118 = sext i32 %117 to i64
  %119 = getelementptr inbounds i64, ptr %116, i64 %118
  %120 = load i64, ptr %119, align 8
  %121 = call ptr @DatumGetPointer(i64 noundef %120)
  call void @pfree(ptr noundef %121)
  br label %122

122:                                              ; preds = %115, %95
  br label %123

123:                                              ; preds = %122, %94
  %124 = load ptr, ptr %18, align 8
  %125 = icmp ne ptr %124, null
  br i1 %125, label %126, label %137

126:                                              ; preds = %123
  %127 = load i32, ptr %20, align 4
  %128 = shl i32 %127, 1
  store i32 %128, ptr %20, align 4
  %129 = load i32, ptr %20, align 4
  %130 = icmp eq i32 %129, 256
  br i1 %130, label %131, label %136

131:                                              ; preds = %126
  %132 = load i32, ptr %19, align 4
  %133 = trunc i32 %132 to i8
  %134 = load ptr, ptr %18, align 8
  %135 = getelementptr inbounds nuw i8, ptr %134, i32 1
  store ptr %135, ptr %18, align 8
  store i8 %133, ptr %134, align 1
  store i32 0, ptr %19, align 4
  store i32 1, ptr %20, align 4
  br label %136

136:                                              ; preds = %131, %126
  br label %137

137:                                              ; preds = %136, %123
  br label %138

138:                                              ; preds = %137
  %139 = load i32, ptr %21, align 4
  %140 = add i32 %139, 1
  store i32 %140, ptr %21, align 4
  br label %66, !llvm.loop !13

141:                                              ; preds = %66
  %142 = load ptr, ptr %18, align 8
  %143 = icmp ne ptr %142, null
  br i1 %143, label %144, label %151

144:                                              ; preds = %141
  %145 = load i32, ptr %20, align 4
  %146 = icmp ne i32 %145, 1
  br i1 %146, label %147, label %151

147:                                              ; preds = %144
  %148 = load i32, ptr %19, align 4
  %149 = trunc i32 %148 to i8
  %150 = load ptr, ptr %18, align 8
  store i8 %149, ptr %150, align 1
  br label %151

151:                                              ; preds = %147, %144, %141
  call void @llvm.lifetime.end.p0(i64 4, ptr %21) #11
  call void @llvm.lifetime.end.p0(i64 4, ptr %20) #11
  call void @llvm.lifetime.end.p0(i64 4, ptr %19) #11
  call void @llvm.lifetime.end.p0(i64 8, ptr %18) #11
  call void @llvm.lifetime.end.p0(i64 8, ptr %17) #11
  ret void
}