; Function Attrs: nounwind uwtable
define dso_local void @CopyArrayEls(ptr noundef captures(address) %0, ptr noundef readonly captures(none) %1, ptr noundef readonly captures(address_is_null) %2, i32 noundef %3, i32 noundef %4, i1 noundef zeroext %5, i8 noundef signext %6, i1 noundef zeroext %7) local_unnamed_addr #0 {
  %9 = getelementptr inbounds nuw i8, ptr %0, i64 8
  %10 = load i32, ptr %9, align 4
  %.not = icmp eq i32 %10, 0
  br i1 %.not, label %.thread, label %17

.thread:                                          ; preds = %8
  %11 = getelementptr inbounds nuw i8, ptr %0, i64 4
  %12 = load i32, ptr %11, align 4
  %13 = sext i32 %12 to i64
  %14 = shl nsw i64 %13, 3
  %15 = add nsw i64 %14, 23
  %16 = and i64 %15, -8
  br label %25

17:                                               ; preds = %8
  %18 = sext i32 %10 to i64
  %19 = getelementptr inbounds nuw i8, ptr %0, i64 16
  %20 = getelementptr inbounds nuw i8, ptr %0, i64 4
  %21 = load i32, ptr %20, align 4
  %22 = sext i32 %21 to i64
  %23 = shl nsw i64 %22, 3
  %24 = getelementptr inbounds nuw i8, ptr %19, i64 %23
  br label %25

25:                                               ; preds = %.thread, %17
  %.pn = phi i64 [ %18, %17 ], [ %16, %.thread ]
  %26 = phi ptr [ %24, %17 ], [ null, %.thread ]
  %27 = getelementptr inbounds nuw i8, ptr %0, i64 %.pn
  %not. = xor i1 %5, true
  %spec.select = and i1 %7, %not.
  %28 = icmp sgt i32 %3, 0
  br i1 %28, label %.lr.ph, label %._crit_edge.thread

.lr.ph:                                           ; preds = %25
  %.not48 = icmp eq ptr %2, null
  %wide.trip.count110 = zext nneg i32 %3 to i64
  br i1 %.not48, label %.lr.ph.split.us, label %.lr.ph.split

.lr.ph.split.us:                                  ; preds = %.lr.ph
  br i1 %spec.select, label %.lr.ph.split.us.split.us, label %.lr.ph.split.us.split

.lr.ph.split.us.split.us:                         ; preds = %.lr.ph.split.us, %42
  %indvars.iv107 = phi i64 [ %indvars.iv.next108, %42 ], [ 0, %.lr.ph.split.us ]
  %.03664.us.us = phi i32 [ %.1.us.us, %42 ], [ 1, %.lr.ph.split.us ]
  %.03763.us.us = phi i32 [ %.2.us.us, %42 ], [ 0, %.lr.ph.split.us ]
  %.03962.us.us = phi ptr [ %.140.us.us, %42 ], [ %26, %.lr.ph.split.us ]
  %.04161.us.us = phi ptr [ %34, %42 ], [ %27, %.lr.ph.split.us ]
  %29 = or i32 %.03664.us.us, %.03763.us.us
  %30 = getelementptr inbounds nuw i64, ptr %1, i64 %indvars.iv107
  %31 = load i64, ptr %30, align 8
  %32 = tail call fastcc i32 @ArrayCastAndSet(i64 noundef %31, i32 noundef %4, i1 noundef zeroext %5, i8 noundef signext %6, ptr noundef %.04161.us.us)
  %33 = sext i32 %32 to i64
  %34 = getelementptr inbounds i8, ptr %.04161.us.us, i64 %33
  %35 = load i64, ptr %30, align 8
  %36 = inttoptr i64 %35 to ptr
  tail call void @pfree(ptr noundef %36) #18
  %.not50.us.us = icmp eq ptr %.03962.us.us, null
  br i1 %.not50.us.us, label %42, label %.thread51.us.us

.thread51.us.us:                                  ; preds = %.lr.ph.split.us.split.us
  %37 = shl i32 %.03664.us.us, 1
  %38 = icmp eq i32 %37, 256
  br i1 %38, label %39, label %42

39:                                               ; preds = %.thread51.us.us
  %40 = trunc i32 %29 to i8
  %41 = getelementptr inbounds nuw i8, ptr %.03962.us.us, i64 1
  store i8 %40, ptr %.03962.us.us, align 1
  br label %42

42:                                               ; preds = %39, %.thread51.us.us, %.lr.ph.split.us.split.us
  %.140.us.us = phi ptr [ %41, %39 ], [ %.03962.us.us, %.thread51.us.us ], [ null, %.lr.ph.split.us.split.us ]
  %.2.us.us = phi i32 [ 0, %39 ], [ %29, %.thread51.us.us ], [ %29, %.lr.ph.split.us.split.us ]
  %.1.us.us = phi i32 [ 1, %39 ], [ %37, %.thread51.us.us ], [ %.03664.us.us, %.lr.ph.split.us.split.us ]
  %indvars.iv.next108 = add nuw nsw i64 %indvars.iv107, 1
  %exitcond111.not = icmp eq i64 %indvars.iv.next108, %wide.trip.count110
  br i1 %exitcond111.not, label %._crit_edge, label %.lr.ph.split.us.split.us, !llvm.loop !14

.lr.ph.split.us.split:                            ; preds = %.lr.ph.split.us, %54
  %indvars.iv102 = phi i64 [ %indvars.iv.next103, %54 ], [ 0, %.lr.ph.split.us ]
  %.03664.us = phi i32 [ %.1.us, %54 ], [ 1, %.lr.ph.split.us ]
  %.03763.us = phi i32 [ %.2.us, %54 ], [ 0, %.lr.ph.split.us ]
  %.03962.us = phi ptr [ %.140.us, %54 ], [ %26, %.lr.ph.split.us ]
  %.04161.us = phi ptr [ %48, %54 ], [ %27, %.lr.ph.split.us ]
  %43 = or i32 %.03664.us, %.03763.us
  %44 = getelementptr inbounds nuw i64, ptr %1, i64 %indvars.iv102
  %45 = load i64, ptr %44, align 8
  %46 = tail call fastcc i32 @ArrayCastAndSet(i64 noundef %45, i32 noundef %4, i1 noundef zeroext %5, i8 noundef signext %6, ptr noundef %.04161.us)
  %47 = sext i32 %46 to i64
  %48 = getelementptr inbounds i8, ptr %.04161.us, i64 %47
  %.not50.us = icmp eq ptr %.03962.us, null
  br i1 %.not50.us, label %54, label %.thread51.us

.thread51.us:                                     ; preds = %.lr.ph.split.us.split
  %49 = shl i32 %.03664.us, 1
  %50 = icmp eq i32 %49, 256
  br i1 %50, label %51, label %54

51:                                               ; preds = %.thread51.us
  %52 = trunc i32 %43 to i8
  %53 = getelementptr inbounds nuw i8, ptr %.03962.us, i64 1
  store i8 %52, ptr %.03962.us, align 1
  br label %54

54:                                               ; preds = %51, %.thread51.us, %.lr.ph.split.us.split
  %.140.us = phi ptr [ %53, %51 ], [ %.03962.us, %.thread51.us ], [ null, %.lr.ph.split.us.split ]
  %.2.us = phi i32 [ 0, %51 ], [ %43, %.thread51.us ], [ %43, %.lr.ph.split.us.split ]
  %.1.us = phi i32 [ 1, %51 ], [ %49, %.thread51.us ], [ %.03664.us, %.lr.ph.split.us.split ]
  %indvars.iv.next103 = add nuw nsw i64 %indvars.iv102, 1
  %exitcond106.not = icmp eq i64 %indvars.iv.next103, %wide.trip.count110
  br i1 %exitcond106.not, label %._crit_edge, label %.lr.ph.split.us.split, !llvm.loop !14

.lr.ph.split:                                     ; preds = %.lr.ph
  br i1 %spec.select, label %.lr.ph.split.split.us, label %.lr.ph.split.split

.lr.ph.split.split.us:                            ; preds = %.lr.ph.split, %73
  %indvars.iv97 = phi i64 [ %indvars.iv.next98, %73 ], [ 0, %.lr.ph.split ]
  %.03664.us71 = phi i32 [ %.1.us82, %73 ], [ 1, %.lr.ph.split ]
  %.03763.us72 = phi i32 [ %.2.us81, %73 ], [ 0, %.lr.ph.split ]
  %.03962.us73 = phi ptr [ %.140.us80, %73 ], [ %26, %.lr.ph.split ]
  %.04161.us74 = phi ptr [ %.14256.us79, %73 ], [ %27, %.lr.ph.split ]
  %55 = getelementptr inbounds nuw i8, ptr %2, i64 %indvars.iv97
  %56 = load i8, ptr %55, align 1, !range !4, !noundef !5
  %57 = trunc nuw i8 %56 to i1
  br i1 %57, label %58, label %59

58:                                               ; preds = %.lr.ph.split.split.us
  %.not49.us = icmp eq ptr %.03962.us73, null
  br i1 %.not49.us, label %.split.us, label %.thread51.us76

59:                                               ; preds = %.lr.ph.split.split.us
  %60 = or i32 %.03664.us71, %.03763.us72
  %61 = getelementptr inbounds nuw i64, ptr %1, i64 %indvars.iv97
  %62 = load i64, ptr %61, align 8
  %63 = tail call fastcc i32 @ArrayCastAndSet(i64 noundef %62, i32 noundef %4, i1 noundef zeroext %5, i8 noundef signext %6, ptr noundef %.04161.us74)
  %64 = sext i32 %63 to i64
  %65 = getelementptr inbounds i8, ptr %.04161.us74, i64 %64
  %66 = load i64, ptr %61, align 8
  %67 = inttoptr i64 %66 to ptr
  tail call void @pfree(ptr noundef %67) #18
  %.not50.us75 = icmp eq ptr %.03962.us73, null
  br i1 %.not50.us75, label %73, label %.thread51.us76

.thread51.us76:                                   ; preds = %59, %58
  %.13857.us77 = phi i32 [ %60, %59 ], [ %.03763.us72, %58 ]
  %.14255.us78 = phi ptr [ %65, %59 ], [ %.04161.us74, %58 ]
  %68 = shl i32 %.03664.us71, 1
  %69 = icmp eq i32 %68, 256
  br i1 %69, label %70, label %73

70:                                               ; preds = %.thread51.us76
  %71 = trunc i32 %.13857.us77 to i8
  %72 = getelementptr inbounds nuw i8, ptr %.03962.us73, i64 1
  store i8 %71, ptr %.03962.us73, align 1
  br label %73

73:                                               ; preds = %70, %.thread51.us76, %59
  %.14256.us79 = phi ptr [ %.14255.us78, %70 ], [ %.14255.us78, %.thread51.us76 ], [ %65, %59 ]
  %.140.us80 = phi ptr [ %72, %70 ], [ %.03962.us73, %.thread51.us76 ], [ null, %59 ]
  %.2.us81 = phi i32 [ 0, %70 ], [ %.13857.us77, %.thread51.us76 ], [ %60, %59 ]
  %.1.us82 = phi i32 [ 1, %70 ], [ %68, %.thread51.us76 ], [ %.03664.us71, %59 ]
  %indvars.iv.next98 = add nuw nsw i64 %indvars.iv97, 1
  %exitcond101.not = icmp eq i64 %indvars.iv.next98, %wide.trip.count110
  br i1 %exitcond101.not, label %._crit_edge, label %.lr.ph.split.split.us, !llvm.loop !14

.lr.ph.split.split:                               ; preds = %.lr.ph.split, %92
  %indvars.iv = phi i64 [ %indvars.iv.next, %92 ], [ 0, %.lr.ph.split ]
  %.03664 = phi i32 [ %.1, %92 ], [ 1, %.lr.ph.split ]
  %.03763 = phi i32 [ %.2, %92 ], [ 0, %.lr.ph.split ]
  %.03962 = phi ptr [ %.140, %92 ], [ %26, %.lr.ph.split ]
  %.04161 = phi ptr [ %.14256, %92 ], [ %27, %.lr.ph.split ]
  %74 = getelementptr inbounds nuw i8, ptr %2, i64 %indvars.iv
  %75 = load i8, ptr %74, align 1, !range !4, !noundef !5
  %76 = trunc nuw i8 %75 to i1
  br i1 %76, label %77, label %80

77:                                               ; preds = %.lr.ph.split.split
  %.not49 = icmp eq ptr %.03962, null
  br i1 %.not49, label %.split.us, label %.thread51

.split.us:                                        ; preds = %77, %58
  %78 = tail call zeroext i1 @errstart_cold(i32 noundef 21, ptr noundef null) #20
  tail call void @llvm.assume(i1 %78)
  %79 = tail call i32 (ptr, ...) @errmsg_internal(ptr noundef nonnull @.str.8) #18
  tail call void @errfinish(ptr noundef nonnull @.str.2, i32 noundef 984, ptr noundef nonnull @__func__.CopyArrayEls) #18
  unreachable

80:                                               ; preds = %.lr.ph.split.split
  %81 = or i32 %.03664, %.03763
  %82 = getelementptr inbounds nuw i64, ptr %1, i64 %indvars.iv
  %83 = load i64, ptr %82, align 8
  %84 = tail call fastcc i32 @ArrayCastAndSet(i64 noundef %83, i32 noundef %4, i1 noundef zeroext %5, i8 noundef signext %6, ptr noundef %.04161)
  %85 = sext i32 %84 to i64
  %86 = getelementptr inbounds i8, ptr %.04161, i64 %85
  %.not50 = icmp eq ptr %.03962, null
  br i1 %.not50, label %92, label %.thread51

.thread51:                                        ; preds = %77, %80
  %.13857 = phi i32 [ %81, %80 ], [ %.03763, %77 ]
  %.14255 = phi ptr [ %86, %80 ], [ %.04161, %77 ]
  %87 = shl i32 %.03664, 1
  %88 = icmp eq i32 %87, 256
  br i1 %88, label %89, label %92

89:                                               ; preds = %.thread51
  %90 = trunc i32 %.13857 to i8
  %91 = getelementptr inbounds nuw i8, ptr %.03962, i64 1
  store i8 %90, ptr %.03962, align 1
  br label %92

92:                                               ; preds = %80, %89, %.thread51
  %.14256 = phi ptr [ %.14255, %89 ], [ %.14255, %.thread51 ], [ %86, %80 ]
  %.140 = phi ptr [ %91, %89 ], [ %.03962, %.thread51 ], [ null, %80 ]
  %.2 = phi i32 [ 0, %89 ], [ %.13857, %.thread51 ], [ %81, %80 ]
  %.1 = phi i32 [ 1, %89 ], [ %87, %.thread51 ], [ %.03664, %80 ]
  %indvars.iv.next = add nuw nsw i64 %indvars.iv, 1
  %exitcond.not = icmp eq i64 %indvars.iv.next, %wide.trip.count110
  br i1 %exitcond.not, label %._crit_edge, label %.lr.ph.split.split, !llvm.loop !14

._crit_edge:                                      ; preds = %92, %73, %54, %42
  %.039.lcssa = phi ptr [ %.140.us.us, %42 ], [ %.140.us, %54 ], [ %.140.us80, %73 ], [ %.140, %92 ]
  %.037.lcssa = phi i32 [ %.2.us.us, %42 ], [ %.2.us, %54 ], [ %.2.us81, %73 ], [ %.2, %92 ]
  %.036.lcssa = phi i32 [ %.1.us.us, %42 ], [ %.1.us, %54 ], [ %.1.us82, %73 ], [ %.1, %92 ]
  %93 = icmp ne ptr %.039.lcssa, null
  %94 = icmp ne i32 %.036.lcssa, 1
  %or.cond = select i1 %93, i1 %94, i1 false
  br i1 %or.cond, label %95, label %._crit_edge.thread

95:                                               ; preds = %._crit_edge
  %96 = trunc i32 %.037.lcssa to i8
  store i8 %96, ptr %.039.lcssa, align 1
  br label %._crit_edge.thread

._crit_edge.thread:                               ; preds = %25, %95, %._crit_edge
  ret void
}